target datalayout = "e-m:e-p270:32:32-p271:32:32-p272:64:64-i64:64-i128:128-f80:128-n8:16:32:64-S128"
target triple = "x86_64-pc-linux-gnu"

%struct.archive = type { i32, i32, ptr, i32, ptr, i32, i32, ptr, %struct.archive_string, ptr, i32, i32, ptr, ptr, i64, i64, i64, i8, i64 }
%struct.archive_string = type { ptr, i64, i64 }

; Function Attrs: nounwind uwtable
define dso_local ptr @archive_error_string(ptr noundef %0) #0 {
  %2 = alloca ptr, align 8
  %3 = alloca ptr, align 8
  store ptr %0, ptr %3, align 8, !tbaa !4
  %4 = load ptr, ptr %3, align 8, !tbaa !4
  %5 = getelementptr inbounds nuw %struct.archive, ptr %4, i32 0, i32 7
  %6 = load ptr, ptr %5, align 8, !tbaa !17
  %7 = icmp ne ptr %6, null
  br i1 %7, label %8, label %19

8:                                                ; preds = %1
  %9 = load ptr, ptr %3, align 8, !tbaa !4
  %10 = getelementptr inbounds nuw %struct.archive, ptr %9, i32 0, i32 7
  %11 = load ptr, ptr %10, align 8, !tbaa !17
  %12 = load i8, ptr %11, align 1, !tbaa !18
  %13 = sext i8 %12 to i32
  %14 = icmp ne i32 %13, 0
  br i1 %14, label %15, label %19

15:                                               ; preds = %8
  %16 = load ptr, ptr %3, align 8, !tbaa !4
  %17 = getelementptr inbounds nuw %struct.archive, ptr %16, i32 0, i32 7
  %18 = load ptr, ptr %17, align 8, !tbaa !17
  store ptr %18, ptr %2, align 8
  br label %20

19:                                               ; preds = %8, %1
  store ptr null, ptr %2, align 8
  br label %20

20:                                               ; preds = %19, %15
  %21 = load ptr, ptr %2, align 8
  ret ptr %21
}