; Function Attrs: mustprogress nofree norecurse nosync nounwind willreturn memory(read, inaccessiblemem: none) uwtable
define dso_local ptr @archive_error_string(ptr noundef readonly captures(none) %0) local_unnamed_addr #4 {
  %2 = getelementptr inbounds nuw i8, ptr %0, i64 40
  %3 = load ptr, ptr %2, align 8, !tbaa !15
  %.not = icmp eq ptr %3, null
  br i1 %.not, label %6, label %4

4:                                                ; preds = %1
  %5 = load i8, ptr %3, align 1, !tbaa !16
  %.not5 = icmp eq i8 %5, 0
  br i1 %.not5, label %6, label %7

6:                                                ; preds = %4, %1
  br label %7

7:                                                ; preds = %4, %6
  %.0 = phi ptr [ null, %6 ], [ %3, %4 ]
  ret ptr %.0
}